; ModuleID = 'source-C-CXX/59/493.c'
source_filename = "source-C-CXX/59/493.c"
target datalayout = "e-m:e-p270:32:32-p271:32:32-p272:64:64-i64:64-f80:128-n8:16:32:64-S128"
target triple = "x86_64-pc-linux-gnu"

@.str = private unnamed_addr constant [3 x i8] c"%d\00", align 1
@.str.1 = private unnamed_addr constant [7 x i8] c"%d %d\0A\00", align 1
@str = private unnamed_addr constant [6 x i8] c"empty\00", align 1

; Function Attrs: nofree nounwind sspstrong uwtable
define dso_local i32 @judge(i32 %0) local_unnamed_addr #0 {
  %2 = sitofp i32 %0 to double
  %3 = tail call double @sqrt(double %2) #5
  %4 = fcmp ult double %3, 2.000000e+00
  %5 = and i32 %0, 1
  %6 = icmp eq i32 %5, 0
  %7 = select i1 %4, i1 true, i1 %6
  br i1 %7, label %17, label %8

8:                                                ; preds = %1, %13
  %9 = phi i32 [ %16, %13 ], [ 3, %1 ]
  %10 = sitofp i32 %9 to double
  %11 = tail call double @sqrt(double %2) #5
  %12 = fcmp ult double %11, %10
  br i1 %12, label %17, label %13, !llvm.loop !5

13:                                               ; preds = %8
  %14 = srem i32 %0, %9
  %15 = icmp eq i32 %14, 0
  %16 = add nuw nsw i32 %9, 1
  br i1 %15, label %17, label %8, !llvm.loop !5

17:                                               ; preds = %13, %8, %1
  %18 = phi double [ 2.000000e+00, %1 ], [ %10, %8 ], [ %10, %13 ]
  %19 = tail call double @sqrt(double %2) #5
  %20 = fcmp olt double %19, %18
  %21 = zext i1 %20 to i32
  ret i32 %21
}

; Function Attrs: argmemonly mustprogress nofree nosync nounwind willreturn
declare void @llvm.lifetime.start.p0i8(i64 immarg, i8* nocapture) #1

; Function Attrs: mustprogress nofree nounwind willreturn
declare double @sqrt(double) local_unnamed_addr #2

; Function Attrs: argmemonly mustprogress nofree nosync nounwind willreturn
declare void @llvm.lifetime.end.p0i8(i64 immarg, i8* nocapture) #1

; Function Attrs: nofree nounwind sspstrong uwtable
define dso_local void @main() local_unnamed_addr #0 {
  %1 = alloca i32, align 4
  %2 = bitcast i32* %1 to i8*
  call void @llvm.lifetime.start.p0i8(i64 4, i8* nonnull %2) #5
  %3 = call i32 (i8*, ...) @__isoc99_scanf(i8* getelementptr inbounds ([3 x i8], [3 x i8]* @.str, i64 0, i64 0), i32* nonnull %1)
  %4 = load i32, i32* %1, align 4, !tbaa !7
  %5 = icmp slt i32 %4, 4
  br i1 %5, label %58, label %6

6:                                                ; preds = %0, %50
  %7 = phi i32 [ %52, %50 ], [ 2, %0 ]
  %8 = phi i32 [ %51, %50 ], [ 0, %0 ]
  %9 = sitofp i32 %7 to double
  %10 = call double @sqrt(double %9) #5
  %11 = fcmp ult double %10, 2.000000e+00
  %12 = and i32 %7, 1
  %13 = icmp eq i32 %12, 0
  %14 = select i1 %11, i1 true, i1 %13
  br i1 %14, label %24, label %15

15:                                               ; preds = %6, %20
  %16 = phi i32 [ %23, %20 ], [ 3, %6 ]
  %17 = sitofp i32 %16 to double
  %18 = call double @sqrt(double %9) #5
  %19 = fcmp ult double %18, %17
  br i1 %19, label %24, label %20, !llvm.loop !5

20:                                               ; preds = %15
  %21 = urem i32 %7, %16
  %22 = icmp eq i32 %21, 0
  %23 = add nuw nsw i32 %16, 1
  br i1 %22, label %24, label %15, !llvm.loop !5

24:                                               ; preds = %20, %15, %6
  %25 = phi double [ 2.000000e+00, %6 ], [ %17, %15 ], [ %17, %20 ]
  %26 = call double @sqrt(double %9) #5
  %27 = fcmp olt double %26, %25
  %28 = add nuw nsw i32 %7, 2
  %29 = sitofp i32 %28 to double
  %30 = call double @sqrt(double %29) #5
  %31 = fcmp ult double %30, 2.000000e+00
  %32 = select i1 %31, i1 true, i1 %13
  br i1 %32, label %42, label %33

33:                                               ; preds = %24, %38
  %34 = phi i32 [ %41, %38 ], [ 3, %24 ]
  %35 = sitofp i32 %34 to double
  %36 = call double @sqrt(double %29) #5
  %37 = fcmp ult double %36, %35
  br i1 %37, label %42, label %38, !llvm.loop !5

38:                                               ; preds = %33
  %39 = urem i32 %28, %34
  %40 = icmp eq i32 %39, 0
  %41 = add nuw nsw i32 %34, 1
  br i1 %40, label %42, label %33, !llvm.loop !5

42:                                               ; preds = %38, %33, %24
  %43 = phi double [ 2.000000e+00, %24 ], [ %35, %33 ], [ %35, %38 ]
  %44 = call double @sqrt(double %29) #5
  %45 = fcmp olt double %44, %43
  %46 = select i1 %27, i1 %45, i1 false
  br i1 %46, label %47, label %50

47:                                               ; preds = %42
  %48 = call i32 (i8*, ...) @printf(i8* nonnull dereferenceable(1) getelementptr inbounds ([7 x i8], [7 x i8]* @.str.1, i64 0, i64 0), i32 %7, i32 %28)
  %49 = add nsw i32 %8, 1
  br label %50

50:                                               ; preds = %42, %47
  %51 = phi i32 [ %49, %47 ], [ %8, %42 ]
  %52 = add nuw nsw i32 %7, 1
  %53 = load i32, i32* %1, align 4, !tbaa !7
  %54 = add nsw i32 %53, -2
  %55 = icmp slt i32 %7, %54
  br i1 %55, label %6, label %56, !llvm.loop !11

56:                                               ; preds = %50
  %57 = icmp eq i32 %51, 0
  br i1 %57, label %58, label %60

58:                                               ; preds = %0, %56
  %59 = call i32 @puts(i8* nonnull dereferenceable(1) getelementptr inbounds ([6 x i8], [6 x i8]* @str, i64 0, i64 0))
  br label %60

60:                                               ; preds = %58, %56
  call void @llvm.lifetime.end.p0i8(i64 4, i8* nonnull %2) #5
  ret void
}

; Function Attrs: nofree nounwind
declare noundef i32 @__isoc99_scanf(i8* nocapture noundef readonly, ...) local_unnamed_addr #3

; Function Attrs: nofree nounwind
declare noundef i32 @printf(i8* nocapture noundef readonly, ...) local_unnamed_addr #3

; Function Attrs: nofree nounwind
declare noundef i32 @puts(i8* nocapture noundef readonly) local_unnamed_addr #4


!llvm.module.flags = !{!0, !1, !2, !3}
!llvm.ident = !{!4}

!0 = !{i32 1, !"wchar_size", i32 4}
!1 = !{i32 7, !"PIC Level", i32 2}
!2 = !{i32 7, !"PIE Level", i32 2}
!3 = !{i32 7, !"uwtable", i32 1}
!4 = !{!"clang version 13.0.0"}
!5 = distinct !{!5, !6}
!6 = !{!"llvm.loop.mustprogress"}
!7 = !{!8, !8, i64 0}
!8 = !{!"int", !9, i64 0}
!9 = !{!"omnipotent char", !10, i64 0}
!10 = !{!"Simple C/C++ TBAA"}
!11 = distinct !{!11, !6}
